; Function Attrs: mustprogress uwtable
define noalias noundef nonnull ptr @lean_uv_timer_mk(i64 noundef %0, i8 noundef zeroext %1, ptr noundef readnone captures(none) %2) local_unnamed_addr #0 {
  %4 = tail call noalias dereferenceable_or_null(32) ptr @malloc(i64 noundef 32) #9
  %5 = getelementptr inbounds nuw i8, ptr %4, i64 16
  store i64 %0, ptr %5, align 8, !tbaa !34
  %6 = icmp ne i8 %1, 0
  %7 = getelementptr inbounds nuw i8, ptr %4, i64 24
  %8 = zext i1 %6 to i8
  store i8 %8, ptr %7, align 8, !tbaa !27
  %9 = getelementptr inbounds nuw i8, ptr %4, i64 28
  store i32 0, ptr %9, align 4, !tbaa !33
  %10 = getelementptr inbounds nuw i8, ptr %4, i64 8
  store ptr null, ptr %10, align 8, !tbaa !3
  %11 = tail call noalias dereferenceable_or_null(152) ptr @malloc(i64 noundef 152) #9
  tail call void @_ZN4lean15event_loop_lockEPNS_12event_loop_tE(ptr noundef nonnull @_ZN4lean9global_evE)
  %12 = load ptr, ptr @_ZN4lean9global_evE, align 8, !tbaa !35
  %13 = tail call i32 @uv_timer_init(ptr noundef %12, ptr noundef %11)
  tail call void @_ZN4lean17event_loop_unlockEPNS_12event_loop_tE(ptr noundef nonnull @_ZN4lean9global_evE)
  %.not = icmp eq i32 %13, 0
  br i1 %.not, label %19, label %14

14:                                               ; preds = %3
  tail call void @free(ptr noundef %11) #8
  tail call void @free(ptr noundef nonnull %4) #8
  %15 = tail call ptr @lean_decode_uv_error(i32 noundef %13, ptr noundef null)
  tail call void @lean_inc_heartbeat()
  %16 = tail call noalias ptr @mi_malloc_small(i64 noundef 24) #8
  %17 = icmp eq ptr %16, null
  br i1 %17, label %18, label %_ZL23lean_io_result_mk_errorP11lean_object.exit

18:                                               ; preds = %14
  tail call void @lean_internal_panic_out_of_memory() #10
  unreachable

19:                                               ; preds = %3
  store ptr %11, ptr %4, align 8, !tbaa !16
  %20 = load ptr, ptr @_ZN4leanL25g_uv_timer_external_classE, align 8, !tbaa !17
  tail call void @lean_inc_heartbeat()
  %21 = tail call noalias ptr @mi_malloc_small(i64 noundef 24) #8
  %22 = icmp eq ptr %21, null
  br i1 %22, label %23, label %_ZN4leanL17lean_uv_timer_newEPNS_20lean_uv_timer_objectE.exit

23:                                               ; preds = %19
  tail call void @lean_internal_panic_out_of_memory() #10
  unreachable

_ZN4leanL17lean_uv_timer_newEPNS_20lean_uv_timer_objectE.exit: ; preds = %19
  %24 = getelementptr inbounds nuw i8, ptr %21, i64 4
  store i32 1, ptr %21, align 4, !tbaa !12
  store i32 -33554408, ptr %24, align 4
  %25 = getelementptr inbounds nuw i8, ptr %21, i64 8
  store ptr %20, ptr %25, align 8, !tbaa !40
  %26 = getelementptr inbounds nuw i8, ptr %21, i64 16
  store ptr %4, ptr %26, align 8, !tbaa !25
  tail call void @lean_mark_mt(ptr noundef nonnull %21)
  %27 = load ptr, ptr %4, align 8, !tbaa !16
  store ptr %21, ptr %27, align 8, !tbaa !18
  tail call void @lean_inc_heartbeat()
  %28 = tail call noalias ptr @mi_malloc_small(i64 noundef 24) #8
  %29 = icmp eq ptr %28, null
  br i1 %29, label %30, label %_ZL23lean_io_result_mk_errorP11lean_object.exit

30:                                               ; preds = %_ZN4leanL17lean_uv_timer_newEPNS_20lean_uv_timer_objectE.exit
  tail call void @lean_internal_panic_out_of_memory() #10
  unreachable

_ZL23lean_io_result_mk_errorP11lean_object.exit:  ; preds = %_ZN4leanL17lean_uv_timer_newEPNS_20lean_uv_timer_objectE.exit, %14
  %.sink25 = phi ptr [ %16, %14 ], [ %28, %_ZN4leanL17lean_uv_timer_newEPNS_20lean_uv_timer_objectE.exit ]
  %.sink22 = phi i32 [ 16908312, %14 ], [ 131096, %_ZN4leanL17lean_uv_timer_newEPNS_20lean_uv_timer_objectE.exit ]
  %.sink = phi ptr [ %15, %14 ], [ %21, %_ZN4leanL17lean_uv_timer_newEPNS_20lean_uv_timer_objectE.exit ]
  %31 = getelementptr inbounds nuw i8, ptr %.sink25, i64 4
  store i32 1, ptr %.sink25, align 4, !tbaa !12
  store i32 %.sink22, ptr %31, align 4
  %32 = getelementptr inbounds nuw i8, ptr %.sink25, i64 8
  store ptr %.sink, ptr %32, align 8, !tbaa !17
  %33 = getelementptr inbounds nuw i8, ptr %.sink25, i64 16
  store ptr inttoptr (i64 1 to ptr), ptr %33, align 8, !tbaa !17
  ret ptr %.sink25
}